target datalayout = "e-m:e-p270:32:32-p271:32:32-p272:64:64-i64:64-i128:128-f80:128-n8:16:32:64-S128"
target triple = "x86_64-pc-linux-gnu"

%struct._zend_phpdbg_globals = type { [11 x %struct._zend_array], %struct._zend_array, %struct._zend_array, ptr, ptr, %struct.phpdbg_frame_t, i32, ptr, %struct.phpdbg_lexer_data, ptr, %struct.sigaction, i32, i64, %struct.phpdbg_btree, %struct.phpdbg_btree, %struct._zend_array, %struct._zend_array, %struct._zend_array, %struct._zend_array, ptr, ptr, i8, ptr, ptr, ptr, i64, ptr, %struct._zval_struct, i32, i32, i8, i8, ptr, ptr, ptr, %struct._zend_array, ptr, ptr, ptr, [3 x %struct.anon.8], ptr, %struct.anon.9, i64, [2 x ptr], [3 x ptr], ptr, i8, ptr, ptr, [500 x i8], i32, %struct.phpdbg_signal_safe_mem, ptr, i64, ptr, i64 }
%struct.phpdbg_frame_t = type { i32, ptr, ptr }
%struct.phpdbg_lexer_data = type { i32, ptr, ptr, ptr, ptr, i32 }
%struct.sigaction = type { %union.anon.7, %struct.__sigset_t, i32, ptr }
%union.anon.7 = type { ptr }
%struct.__sigset_t = type { [16 x i64] }
%struct.phpdbg_btree = type { i64, i64, i8, ptr }
%struct._zval_struct = type { %union._zend_value, %union.anon, %union.anon.2 }
%union._zend_value = type { i64 }
%union.anon = type { i32 }
%union.anon.2 = type { i32 }
%struct._zend_array = type { %struct._zend_refcounted_h, %union.anon.4, i32, %union.anon.6, i32, i32, i32, i32, i64, ptr }
%struct._zend_refcounted_h = type { i32, %union.anon.3 }
%union.anon.3 = type { i32 }
%union.anon.4 = type { i32 }
%union.anon.6 = type { ptr }
%struct.anon.8 = type { i32 }
%struct.anon.9 = type { i8, i32, i32, ptr, i32 }
%struct.phpdbg_signal_safe_mem = type { ptr, i8, ptr, ptr }
%struct._Bucket = type { %struct._zval_struct, i64, ptr }
%struct._zend_string = type { %struct._zend_refcounted_h, i64, i64, [1 x i8] }
%struct._phpdbg_watchpoint_t = type { %union.anon.27, i64, i32, ptr, %struct._zend_array, ptr, %union.anon.28 }
%union.anon.27 = type { ptr }
%union.anon.28 = type { %struct._zend_array }
%struct._zend_reference = type { %struct._zend_refcounted_h, %struct._zval_struct, %union.zend_property_info_source_list }
%union.zend_property_info_source_list = type { ptr }
%struct._phpdbg_watch_element = type { i32, ptr, i8, ptr, ptr, %struct._zend_array, ptr, ptr, ptr, %union.anon.29 }
%union.anon.29 = type { %struct._zend_array }

@phpdbg_globals = external global %struct._zend_phpdbg_globals, align 8
@.str.15 = private unnamed_addr constant [1 x i8] zeroinitializer, align 1
@.str.26 = private unnamed_addr constant [45 x i8] c"%.*s has been removed, removing watchpoint%s\00", align 1
@.str.27 = private unnamed_addr constant [13 x i8] c" recursively\00", align 1

; Function Attrs: nounwind uwtable
define hidden void @phpdbg_automatic_dequeue_free(ptr noundef %0) #0 {
  %2 = alloca ptr, align 8
  %3 = alloca ptr, align 8
  store ptr %0, ptr %2, align 8
  %4 = load ptr, ptr %2, align 8
  store ptr %4, ptr %3, align 8
  br label %5

5:                                                ; preds = %20, %1
  %6 = load ptr, ptr %3, align 8
  %7 = getelementptr inbounds %struct._phpdbg_watch_element, ptr %6, i32 0, i32 3
  %8 = load ptr, ptr %7, align 8
  %9 = icmp ne ptr %8, null
  br i1 %9, label %10, label %18

10:                                               ; preds = %5
  %11 = load ptr, ptr %3, align 8
  %12 = getelementptr inbounds %struct._phpdbg_watch_element, ptr %11, i32 0, i32 2
  %13 = load i8, ptr %12, align 8
  %14 = sext i8 %13 to i32
  %15 = and i32 %14, 32
  %16 = icmp ne i32 %15, 0
  %17 = xor i1 %16, true
  br label %18

18:                                               ; preds = %10, %5
  %19 = phi i1 [ false, %5 ], [ %17, %10 ]
  br i1 %19, label %20, label %24

20:                                               ; preds = %18
  %21 = load ptr, ptr %3, align 8
  %22 = getelementptr inbounds %struct._phpdbg_watch_element, ptr %21, i32 0, i32 3
  %23 = load ptr, ptr %22, align 8
  store ptr %23, ptr %3, align 8
  br label %5

24:                                               ; preds = %18
  store i8 1, ptr getelementptr inbounds (%struct._zend_phpdbg_globals, ptr @phpdbg_globals, i32 0, i32 21), align 8
  %25 = load ptr, ptr %3, align 8
  %26 = getelementptr inbounds %struct._phpdbg_watch_element, ptr %25, i32 0, i32 0
  %27 = load i32, ptr %26, align 8
  %28 = zext i32 %27 to i64
  %29 = call i32 @zend_hash_index_del(ptr noundef getelementptr inbounds (%struct._zend_phpdbg_globals, ptr @phpdbg_globals, i32 0, i32 15), i64 noundef %28)
  %30 = icmp eq i32 %29, 0
  br i1 %30, label %31, label %52

31:                                               ; preds = %24
  %32 = load i32, ptr getelementptr inbounds (%struct._zend_phpdbg_globals, ptr @phpdbg_globals, i32 0, i32 39, i64 1), align 4
  %33 = load ptr, ptr %3, align 8
  %34 = getelementptr inbounds %struct._phpdbg_watch_element, ptr %33, i32 0, i32 8
  %35 = load ptr, ptr %34, align 8
  %36 = getelementptr inbounds %struct._zend_string, ptr %35, i32 0, i32 2
  %37 = load i64, ptr %36, align 8
  %38 = trunc i64 %37 to i32
  %39 = load ptr, ptr %3, align 8
  %40 = getelementptr inbounds %struct._phpdbg_watch_element, ptr %39, i32 0, i32 8
  %41 = load ptr, ptr %40, align 8
  %42 = getelementptr inbounds %struct._zend_string, ptr %41, i32 0, i32 3
  %43 = getelementptr inbounds [1 x i8], ptr %42, i64 0, i64 0
  %44 = load ptr, ptr %3, align 8
  %45 = getelementptr inbounds %struct._phpdbg_watch_element, ptr %44, i32 0, i32 2
  %46 = load i8, ptr %45, align 8
  %47 = sext i8 %46 to i32
  %48 = and i32 %47, 32
  %49 = icmp ne i32 %48, 0
  %50 = select i1 %49, ptr @.str.27, ptr @.str.15
  %51 = call i32 (i32, i32, ptr, ...) @phpdbg_print(i32 noundef 2, i32 noundef %32, ptr noundef @.str.26, i32 noundef %38, ptr noundef %43, ptr noundef %50)
  br label %52

52:                                               ; preds = %31, %24
  %53 = load ptr, ptr %2, align 8
  call void @phpdbg_free_watch_element_tree(ptr noundef %53)
  ret void
}

; Function Attrs: nounwind uwtable
define hidden void @phpdbg_dequeue_elements_for_recreation() #0 {
  %1 = alloca ptr, align 8
  %2 = alloca ptr, align 8
  %3 = alloca ptr, align 8
  %4 = alloca ptr, align 8
  %5 = alloca ptr, align 8
  %6 = alloca ptr, align 8
  %7 = alloca ptr, align 8
  %8 = alloca ptr, align 8
  %9 = alloca %struct._zval_struct, align 8
  %10 = alloca ptr, align 8
  %11 = alloca ptr, align 8
  %12 = alloca ptr, align 8
  br label %13

13:                                               ; preds = %0
  store ptr getelementptr inbounds (%struct._zend_phpdbg_globals, ptr @phpdbg_globals, i32 0, i32 17), ptr %5, align 8
  %14 = load ptr, ptr %5, align 8
  %15 = getelementptr inbounds %struct._zend_array, ptr %14, i32 0, i32 3
  %16 = load ptr, ptr %15, align 8
  %17 = getelementptr inbounds %struct._Bucket, ptr %16, i64 0
  store ptr %17, ptr %6, align 8
  %18 = load ptr, ptr %5, align 8
  %19 = getelementptr inbounds %struct._zend_array, ptr %18, i32 0, i32 3
  %20 = load ptr, ptr %19, align 8
  %21 = load ptr, ptr %5, align 8
  %22 = getelementptr inbounds %struct._zend_array, ptr %21, i32 0, i32 4
  %23 = load i32, ptr %22, align 8
  %24 = zext i32 %23 to i64
  %25 = getelementptr inbounds %struct._Bucket, ptr %20, i64 %24
  store ptr %25, ptr %7, align 8
  %26 = load ptr, ptr %5, align 8
  %27 = getelementptr inbounds %struct._zend_array, ptr %26, i32 0, i32 1
  %28 = load i32, ptr %27, align 8
  %29 = and i32 %28, 4
  %30 = icmp ne i32 %29, 0
  %31 = xor i1 %30, true
  call void @llvm.assume(i1 %31)
  br label %32

32:                                               ; preds = %157, %13
  %33 = load ptr, ptr %6, align 8
  %34 = load ptr, ptr %7, align 8
  %35 = icmp ne ptr %33, %34
  br i1 %35, label %36, label %160

36:                                               ; preds = %32
  %37 = load ptr, ptr %6, align 8
  %38 = getelementptr inbounds %struct._Bucket, ptr %37, i32 0, i32 0
  store ptr %38, ptr %8, align 8
  %39 = load ptr, ptr %8, align 8
  store ptr %39, ptr %1, align 8
  %40 = load ptr, ptr %1, align 8
  %41 = getelementptr inbounds %struct._zval_struct, ptr %40, i32 0, i32 1
  %42 = load i8, ptr %41, align 8
  %43 = zext i8 %42 to i32
  %44 = icmp eq i32 %43, 0
  %45 = xor i1 %44, true
  %46 = xor i1 %45, true
  %47 = zext i1 %46 to i32
  %48 = sext i32 %47 to i64
  %49 = icmp ne i64 %48, 0
  br i1 %49, label %50, label %51

50:                                               ; preds = %36
  br label %157

51:                                               ; preds = %36
  %52 = load ptr, ptr %8, align 8
  %53 = getelementptr inbounds %struct._zval_struct, ptr %52, i32 0, i32 0
  %54 = load ptr, ptr %53, align 8
  store ptr %54, ptr %4, align 8
  %55 = load ptr, ptr %4, align 8
  %56 = getelementptr inbounds %struct._phpdbg_watch_element, ptr %55, i32 0, i32 2
  %57 = load i8, ptr %56, align 8
  %58 = sext i8 %57 to i32
  %59 = and i32 %58, 49
  %60 = icmp ne i32 %59, 0
  call void @llvm.assume(i1 %60)
  %61 = load ptr, ptr %4, align 8
  %62 = getelementptr inbounds %struct._phpdbg_watch_element, ptr %61, i32 0, i32 4
  %63 = load ptr, ptr %62, align 8
  %64 = icmp ne ptr %63, null
  br i1 %64, label %72, label %65

65:                                               ; preds = %51
  %66 = load ptr, ptr %4, align 8
  %67 = getelementptr inbounds %struct._phpdbg_watch_element, ptr %66, i32 0, i32 6
  %68 = load ptr, ptr %67, align 8
  %69 = ptrtoint ptr %68 to i64
  %70 = call ptr @zend_hash_index_find(ptr noundef getelementptr inbounds (%struct._zend_phpdbg_globals, ptr @phpdbg_globals, i32 0, i32 18), i64 noundef %69)
  %71 = icmp ne ptr %70, null
  br i1 %71, label %72, label %154

72:                                               ; preds = %65, %51
  store ptr %9, ptr %10, align 8
  %73 = load ptr, ptr %4, align 8
  %74 = getelementptr inbounds %struct._phpdbg_watch_element, ptr %73, i32 0, i32 4
  %75 = load ptr, ptr %74, align 8
  %76 = icmp ne ptr %75, null
  br i1 %76, label %77, label %135

77:                                               ; preds = %72
  %78 = load ptr, ptr %4, align 8
  %79 = getelementptr inbounds %struct._phpdbg_watch_element, ptr %78, i32 0, i32 4
  %80 = load ptr, ptr %79, align 8
  %81 = getelementptr inbounds %struct._phpdbg_watch_element, ptr %80, i32 0, i32 1
  %82 = load ptr, ptr %81, align 8
  %83 = getelementptr inbounds %struct._phpdbg_watchpoint_t, ptr %82, i32 0, i32 2
  %84 = load i32, ptr %83, align 8
  %85 = icmp eq i32 %84, 0
  br i1 %85, label %95, label %86

86:                                               ; preds = %77
  %87 = load ptr, ptr %4, align 8
  %88 = getelementptr inbounds %struct._phpdbg_watch_element, ptr %87, i32 0, i32 4
  %89 = load ptr, ptr %88, align 8
  %90 = getelementptr inbounds %struct._phpdbg_watch_element, ptr %89, i32 0, i32 1
  %91 = load ptr, ptr %90, align 8
  %92 = getelementptr inbounds %struct._phpdbg_watchpoint_t, ptr %91, i32 0, i32 2
  %93 = load i32, ptr %92, align 8
  %94 = icmp eq i32 %93, 5
  br label %95

95:                                               ; preds = %86, %77
  %96 = phi i1 [ true, %77 ], [ %94, %86 ]
  call void @llvm.assume(i1 %96)
  %97 = load ptr, ptr %4, align 8
  %98 = getelementptr inbounds %struct._phpdbg_watch_element, ptr %97, i32 0, i32 4
  %99 = load ptr, ptr %98, align 8
  %100 = getelementptr inbounds %struct._phpdbg_watch_element, ptr %99, i32 0, i32 1
  %101 = load ptr, ptr %100, align 8
  %102 = getelementptr inbounds %struct._phpdbg_watchpoint_t, ptr %101, i32 0, i32 0
  %103 = load ptr, ptr %102, align 8
  store ptr %103, ptr %10, align 8
  br label %104

104:                                              ; preds = %111, %95
  %105 = load ptr, ptr %10, align 8
  store ptr %105, ptr %2, align 8
  %106 = load ptr, ptr %2, align 8
  %107 = getelementptr inbounds %struct._zval_struct, ptr %106, i32 0, i32 1
  %108 = load i8, ptr %107, align 8
  %109 = zext i8 %108 to i32
  %110 = icmp eq i32 %109, 12
  br i1 %110, label %111, label %115

111:                                              ; preds = %104
  %112 = load ptr, ptr %10, align 8
  %113 = getelementptr inbounds %struct._zval_struct, ptr %112, i32 0, i32 0
  %114 = load ptr, ptr %113, align 8
  store ptr %114, ptr %10, align 8
  br label %104

115:                                              ; preds = %104
  br label %116

116:                                              ; preds = %115
  %117 = load ptr, ptr %10, align 8
  store ptr %117, ptr %3, align 8
  %118 = load ptr, ptr %3, align 8
  %119 = getelementptr inbounds %struct._zval_struct, ptr %118, i32 0, i32 1
  %120 = load i8, ptr %119, align 8
  %121 = zext i8 %120 to i32
  %122 = icmp eq i32 %121, 10
  %123 = xor i1 %122, true
  %124 = xor i1 %123, true
  %125 = zext i1 %124 to i32
  %126 = sext i32 %125 to i64
  %127 = icmp ne i64 %126, 0
  br i1 %127, label %128, label %133

128:                                              ; preds = %116
  %129 = load ptr, ptr %10, align 8
  %130 = getelementptr inbounds %struct._zval_struct, ptr %129, i32 0, i32 0
  %131 = load ptr, ptr %130, align 8
  %132 = getelementptr inbounds %struct._zend_reference, ptr %131, i32 0, i32 1
  store ptr %132, ptr %10, align 8
  br label %133

133:                                              ; preds = %128, %116
  br label %134

134:                                              ; preds = %133
  br label %147

135:                                              ; preds = %72
  br label %136

136:                                              ; preds = %135
  %137 = load ptr, ptr %4, align 8
  %138 = getelementptr inbounds %struct._phpdbg_watch_element, ptr %137, i32 0, i32 6
  %139 = load ptr, ptr %138, align 8
  store ptr %139, ptr %11, align 8
  %140 = load ptr, ptr %10, align 8
  store ptr %140, ptr %12, align 8
  %141 = load ptr, ptr %11, align 8
  %142 = load ptr, ptr %12, align 8
  %143 = getelementptr inbounds %struct._zval_struct, ptr %142, i32 0, i32 0
  store ptr %141, ptr %143, align 8
  %144 = load ptr, ptr %12, align 8
  %145 = getelementptr inbounds %struct._zval_struct, ptr %144, i32 0, i32 1
  store i32 775, ptr %145, align 8
  br label %146

146:                                              ; preds = %136
  br label %147

147:                                              ; preds = %146, %134
  %148 = load ptr, ptr %10, align 8
  %149 = load ptr, ptr %4, align 8
  %150 = call zeroext i1 @phpdbg_try_re_adding_watch_element(ptr noundef %148, ptr noundef %149)
  br i1 %150, label %153, label %151

151:                                              ; preds = %147
  %152 = load ptr, ptr %4, align 8
  call void @phpdbg_automatic_dequeue_free(ptr noundef %152)
  br label %153

153:                                              ; preds = %151, %147
  br label %156

154:                                              ; preds = %65
  %155 = load ptr, ptr %4, align 8
  call void @phpdbg_automatic_dequeue_free(ptr noundef %155)
  br label %156

156:                                              ; preds = %154, %153
  br label %157

157:                                              ; preds = %156, %50
  %158 = load ptr, ptr %6, align 8
  %159 = getelementptr inbounds %struct._Bucket, ptr %158, i32 1
  store ptr %159, ptr %6, align 8
  br label %32

160:                                              ; preds = %32
  br label %161

161:                                              ; preds = %160
  call void @zend_hash_clean(ptr noundef getelementptr inbounds (%struct._zend_phpdbg_globals, ptr @phpdbg_globals, i32 0, i32 17))
  call void @zend_hash_clean(ptr noundef getelementptr inbounds (%struct._zend_phpdbg_globals, ptr @phpdbg_globals, i32 0, i32 18))
  ret void
}