; Function Attrs: nounwind uwtable
define hidden void @phpdbg_dequeue_elements_for_recreation() local_unnamed_addr #0 {
  %1 = alloca %struct._zval_struct, align 8
  %2 = load ptr, ptr getelementptr inbounds (%struct._zend_phpdbg_globals, ptr @phpdbg_globals, i64 0, i32 17, i32 3), align 8
  %3 = load i32, ptr getelementptr inbounds (%struct._zend_phpdbg_globals, ptr @phpdbg_globals, i64 0, i32 17, i32 4), align 8
  %4 = zext i32 %3 to i64
  %5 = getelementptr inbounds %struct._Bucket, ptr %2, i64 %4
  %6 = load i32, ptr getelementptr inbounds (%struct._zend_phpdbg_globals, ptr @phpdbg_globals, i64 0, i32 17, i32 1), align 8
  %7 = and i32 %6, 4
  %.not = icmp eq i32 %7, 0
  tail call void @llvm.assume(i1 %.not)
  %.not3750 = icmp eq i32 %3, 0
  br i1 %.not3750, label %._crit_edge, label %.lr.ph

.lr.ph:                                           ; preds = %0
  %8 = getelementptr inbounds i8, ptr %1, i64 8
  br label %9

9:                                                ; preds = %.lr.ph, %75
  %.051 = phi ptr [ %2, %.lr.ph ], [ %76, %75 ]
  %10 = getelementptr inbounds i8, ptr %.051, i64 8
  %11 = load i8, ptr %10, align 8
  %12 = icmp eq i8 %11, 0
  br i1 %12, label %75, label %13

13:                                               ; preds = %9
  %14 = load ptr, ptr %.051, align 8
  %15 = getelementptr inbounds i8, ptr %14, i64 16
  %16 = load i8, ptr %15, align 8
  %17 = and i8 %16, 49
  %18 = icmp ne i8 %17, 0
  tail call void @llvm.assume(i1 %18)
  %19 = getelementptr inbounds i8, ptr %14, i64 32
  %20 = load ptr, ptr %19, align 8
  %.not38 = icmp eq ptr %20, null
  br i1 %.not38, label %21, label %.thread

21:                                               ; preds = %13
  %22 = getelementptr inbounds i8, ptr %14, i64 96
  %23 = load ptr, ptr %22, align 8
  %24 = ptrtoint ptr %23 to i64
  %25 = tail call ptr @zend_hash_index_find(ptr noundef nonnull getelementptr inbounds (%struct._zend_phpdbg_globals, ptr @phpdbg_globals, i64 0, i32 18), i64 noundef %24) #17
  %.not39 = icmp eq ptr %25, null
  br i1 %.not39, label %.preheader, label %26

26:                                               ; preds = %21
  %.pr = load ptr, ptr %19, align 8
  %.not40 = icmp eq ptr %.pr, null
  br i1 %.not40, label %40, label %.thread

.thread:                                          ; preds = %13, %26
  %27 = phi ptr [ %.pr, %26 ], [ %20, %13 ]
  %28 = getelementptr inbounds i8, ptr %27, i64 8
  %29 = load ptr, ptr %28, align 8
  %30 = getelementptr inbounds i8, ptr %29, i64 16
  %31 = load i32, ptr %30, align 8
  %32 = icmp eq i32 %31, 0
  %33 = icmp eq i32 %31, 5
  %spec.select = or i1 %32, %33
  tail call void @llvm.assume(i1 %spec.select)
  br label %34

34:                                               ; preds = %34, %.thread
  %.033.in = phi ptr [ %29, %.thread ], [ %.033, %34 ]
  %.033 = load ptr, ptr %.033.in, align 8
  %35 = getelementptr inbounds i8, ptr %.033, i64 8
  %36 = load i8, ptr %35, align 8
  switch i8 %36, label %.loopexit [
    i8 12, label %34
    i8 10, label %37
  ]

37:                                               ; preds = %34
  %38 = load ptr, ptr %.033, align 8
  %39 = getelementptr inbounds i8, ptr %38, i64 8
  br label %.loopexit

40:                                               ; preds = %26
  %41 = load ptr, ptr %22, align 8
  store ptr %41, ptr %1, align 8
  store i32 775, ptr %8, align 8
  br label %.loopexit

.loopexit:                                        ; preds = %34, %37, %40
  %.1 = phi ptr [ %39, %37 ], [ %1, %40 ], [ %.033, %34 ]
  %42 = call zeroext i1 @phpdbg_try_re_adding_watch_element(ptr noundef nonnull %.1, ptr noundef %14)
  br i1 %42, label %75, label %.preheader48

.preheader48:                                     ; preds = %.loopexit, %45
  %.0.i = phi ptr [ %44, %45 ], [ %14, %.loopexit ]
  %43 = getelementptr inbounds i8, ptr %.0.i, i64 24
  %44 = load ptr, ptr %43, align 8
  %.not.i = icmp eq ptr %44, null
  br i1 %.not.i, label %.critedge.i, label %45

45:                                               ; preds = %.preheader48
  %46 = getelementptr inbounds i8, ptr %.0.i, i64 16
  %47 = load i8, ptr %46, align 8
  %48 = and i8 %47, 32
  %.not10.i = icmp eq i8 %48, 0
  br i1 %.not10.i, label %.preheader48, label %.critedge.i

.critedge.i:                                      ; preds = %45, %.preheader48
  store i8 1, ptr getelementptr inbounds (%struct._zend_phpdbg_globals, ptr @phpdbg_globals, i64 0, i32 21), align 8
  %49 = load i32, ptr %.0.i, align 8
  %50 = zext i32 %49 to i64
  %51 = tail call i32 @zend_hash_index_del(ptr noundef nonnull getelementptr inbounds (%struct._zend_phpdbg_globals, ptr @phpdbg_globals, i64 0, i32 15), i64 noundef %50) #17
  %52 = icmp eq i32 %51, 0
  br i1 %52, label %.sink.split.sink.split, label %.sink.split

.preheader:                                       ; preds = %21, %55
  %.0.i41 = phi ptr [ %54, %55 ], [ %14, %21 ]
  %53 = getelementptr inbounds i8, ptr %.0.i41, i64 24
  %54 = load ptr, ptr %53, align 8
  %.not.i42 = icmp eq ptr %54, null
  br i1 %.not.i42, label %.critedge.i44, label %55

55:                                               ; preds = %.preheader
  %56 = getelementptr inbounds i8, ptr %.0.i41, i64 16
  %57 = load i8, ptr %56, align 8
  %58 = and i8 %57, 32
  %.not10.i43 = icmp eq i8 %58, 0
  br i1 %.not10.i43, label %.preheader, label %.critedge.i44

.critedge.i44:                                    ; preds = %55, %.preheader
  store i8 1, ptr getelementptr inbounds (%struct._zend_phpdbg_globals, ptr @phpdbg_globals, i64 0, i32 21), align 8
  %59 = load i32, ptr %.0.i41, align 8
  %60 = zext i32 %59 to i64
  %61 = tail call i32 @zend_hash_index_del(ptr noundef nonnull getelementptr inbounds (%struct._zend_phpdbg_globals, ptr @phpdbg_globals, i64 0, i32 15), i64 noundef %60) #17
  %62 = icmp eq i32 %61, 0
  br i1 %62, label %.sink.split.sink.split, label %.sink.split

.sink.split.sink.split:                           ; preds = %.critedge.i44, %.critedge.i
  %.0.i.lcssa.sink = phi ptr [ %.0.i, %.critedge.i ], [ %.0.i41, %.critedge.i44 ]
  %63 = load i32, ptr getelementptr inbounds (%struct._zend_phpdbg_globals, ptr @phpdbg_globals, i64 0, i32 39, i64 1), align 4
  %64 = getelementptr inbounds i8, ptr %.0.i.lcssa.sink, i64 112
  %65 = load ptr, ptr %64, align 8
  %66 = getelementptr inbounds i8, ptr %65, i64 16
  %67 = load i64, ptr %66, align 8
  %68 = trunc i64 %67 to i32
  %69 = getelementptr inbounds i8, ptr %65, i64 24
  %70 = getelementptr inbounds i8, ptr %.0.i.lcssa.sink, i64 16
  %71 = load i8, ptr %70, align 8
  %72 = and i8 %71, 32
  %.not11.i45 = icmp eq i8 %72, 0
  %73 = select i1 %.not11.i45, ptr @.str.15, ptr @.str.27
  %74 = tail call i32 (i32, i32, ptr, ...) @phpdbg_print(i32 noundef 2, i32 noundef %63, ptr noundef nonnull @.str.26, i32 noundef %68, ptr noundef nonnull %69, ptr noundef nonnull %73) #17
  br label %.sink.split

.sink.split:                                      ; preds = %.sink.split.sink.split, %.critedge.i44, %.critedge.i
  tail call void @phpdbg_free_watch_element_tree(ptr noundef %14)
  br label %75

75:                                               ; preds = %.sink.split, %.loopexit, %9
  %76 = getelementptr inbounds i8, ptr %.051, i64 32
  %.not37 = icmp eq ptr %76, %5
  br i1 %.not37, label %._crit_edge, label %9

._crit_edge:                                      ; preds = %75, %0
  tail call void @zend_hash_clean(ptr noundef nonnull getelementptr inbounds (%struct._zend_phpdbg_globals, ptr @phpdbg_globals, i64 0, i32 17)) #17
  tail call void @zend_hash_clean(ptr noundef nonnull getelementptr inbounds (%struct._zend_phpdbg_globals, ptr @phpdbg_globals, i64 0, i32 18)) #17
  ret void
}